; Function Attrs: mustprogress uwtable
define noundef double @_ZNK8QuantLib16MarkovFunctional18marketDigitalPriceERKNS_4DateERKNS0_16CalibrationPointERKNS_6Option4TypeEd(ptr nocapture noundef nonnull readonly align 8 dereferenceable(1344) %this, ptr nocapture noundef nonnull readnone align 8 dereferenceable(8) %expiry, ptr nocapture noundef nonnull readonly align 8 dereferenceable(128) %p, ptr nocapture noundef nonnull readonly align 4 dereferenceable(4) %type, double noundef %strike) local_unnamed_addr #1 align 2 {
entry:
  %smileSection_ = getelementptr inbounds nuw i8, ptr %p, i64 80
  %0 = load ptr, ptr %smileSection_, align 8, !tbaa !368
  %cmp.not.i = icmp eq ptr %0, null
  br i1 %cmp.not.i, label %cond.false.i, label %_ZNK5boost10shared_ptrIN8QuantLib12SmileSectionEEptEv.exit, !prof !76

cond.false.i:                                     ; preds = %entry
  tail call void @_ZN5boost16assertion_failedEPKcS1_S1_l(ptr noundef nonnull @.str.83, ptr noundef nonnull @__PRETTY_FUNCTION__._ZNK5boost10shared_ptrIN8QuantLib12SmileSectionEEptEv, ptr noundef nonnull @.str.84, i64 noundef 784)
  %.pre.i = load ptr, ptr %smileSection_, align 8, !tbaa !368
  br label %_ZNK5boost10shared_ptrIN8QuantLib12SmileSectionEEptEv.exit

_ZNK5boost10shared_ptrIN8QuantLib12SmileSectionEEptEv.exit: ; preds = %entry, %cond.false.i
  %1 = phi ptr [ %0, %entry ], [ %.pre.i, %cond.false.i ]
  %2 = load i32, ptr %type, align 4, !tbaa !516
  %annuity_ = getelementptr inbounds nuw i8, ptr %p, i64 72
  %3 = load double, ptr %annuity_, align 8, !tbaa !533
  %digitalGap_ = getelementptr inbounds nuw i8, ptr %this, i64 232
  %4 = load double, ptr %digitalGap_, align 8, !tbaa !428
  %vtable = load ptr, ptr %1, align 8, !tbaa !14
  %vfn = getelementptr inbounds i8, ptr %vtable, i64 104
  %5 = load ptr, ptr %vfn, align 8
  %call2 = tail call noundef double %5(ptr noundef nonnull align 8 dereferenceable(72) %1, double noundef %strike, i32 noundef %2, double noundef %3, double noundef %4)
  ret double %call2
}